; Function Attrs: mustprogress nounwind uwtable
define hidden void @_ZN17MemoryFileTracker11free_memoryEPNS_10MemoryFileEmm(ptr nocapture noundef nonnull readnone align 8 dereferenceable(112) %0, ptr noundef %1, i64 noundef %2, i64 noundef %3) local_unnamed_addr #0 align 2 {
  %5 = alloca %"struct.VMATree::SummaryDiff", align 8
  %6 = getelementptr inbounds i8, ptr %1, i64 680
  %7 = add i64 %3, %2
  call void @_ZN7VMATree16register_mappingEmmNS_9StateTypeERKNS_10RegionDataE(ptr dead_on_unwind nonnull writable sret(%"struct.VMATree::SummaryDiff") align 8 %5, ptr noundef nonnull align 8 dereferenceable(32) %6, i64 noundef %2, i64 noundef %7, i8 noundef zeroext 2, ptr noundef nonnull align 4 dereferenceable(5) @_ZN7VMATree16empty_regiondataE) #10
  %8 = getelementptr inbounds i8, ptr %1, i64 8
  br label %9

9:                                                ; preds = %4, %9
  %indvars.iv = phi i64 [ 0, %4 ], [ %indvars.iv.next, %9 ]
  %10 = getelementptr inbounds [28 x %class.VirtualMemory], ptr %8, i64 0, i64 %indvars.iv
  %11 = getelementptr inbounds [28 x %"struct.VMATree::SingleDiff"], ptr %5, i64 0, i64 %indvars.iv, i32 1
  %12 = load i64, ptr %11, align 8
  %13 = load i64, ptr %10, align 8
  %14 = add i64 %13, %12
  store i64 %14, ptr %10, align 8
  %15 = getelementptr inbounds i8, ptr %10, i64 8
  %16 = load i64, ptr %15, align 8
  %17 = add i64 %16, %12
  store i64 %17, ptr %15, align 8
  call void @_ZN13VirtualMemory11update_peakEm(ptr noundef nonnull align 8 dereferenceable(24) %10, i64 noundef %17) #10
  %indvars.iv.next = add nuw nsw i64 %indvars.iv, 1
  %exitcond.not = icmp eq i64 %indvars.iv.next, 28
  br i1 %exitcond.not, label %18, label %9, !llvm.loop !8

18:                                               ; preds = %9
  ret void
}